target datalayout = "e-m:e-p270:32:32-p271:32:32-p272:64:64-i64:64-i128:128-f80:128-n8:16:32:64-S128"
target triple = "x86_64-pc-linux-gnu"

%struct.PutBitContext = type { i32, i32, ptr, ptr, ptr }

@.str.2 = private unnamed_addr constant [43 x i8] c"Internal error, put_bits buffer too small\0A\00", align 1

; Function Attrs: alwaysinline nounwind willreturn memory(none) uwtable
define internal i32 @av_bswap32(i32 noundef %0) #4 {
  %2 = alloca i32, align 4
  store i32 %0, ptr %2, align 4, !tbaa !66
  %3 = load i32, ptr %2, align 4, !tbaa !66
  %4 = shl i32 %3, 8
  %5 = and i32 %4, 65280
  %6 = load i32, ptr %2, align 4, !tbaa !66
  %7 = lshr i32 %6, 8
  %8 = and i32 %7, 255
  %9 = or i32 %5, %8
  %10 = shl i32 %9, 16
  %11 = load i32, ptr %2, align 4, !tbaa !66
  %12 = lshr i32 %11, 16
  %13 = shl i32 %12, 8
  %14 = and i32 %13, 65280
  %15 = load i32, ptr %2, align 4, !tbaa !66
  %16 = lshr i32 %15, 16
  %17 = lshr i32 %16, 8
  %18 = and i32 %17, 255
  %19 = or i32 %14, %18
  %20 = or i32 %10, %19
  ret i32 %20
}

; Function Attrs: alwaysinline nounwind willreturn memory(none) uwtable
define internal i32 @av_zero_extend_c(i32 noundef %0, i32 noundef %1) #4 {
  %3 = alloca i32, align 4
  %4 = alloca i32, align 4
  store i32 %0, ptr %3, align 4, !tbaa !66
  store i32 %1, ptr %4, align 4, !tbaa !66
  %5 = load i32, ptr %3, align 4, !tbaa !66
  %6 = load i32, ptr %4, align 4, !tbaa !66
  %7 = shl i32 1, %6
  %8 = sub i32 %7, 1
  %9 = and i32 %5, %8
  ret i32 %9
}

; Function Attrs: inlinehint nounwind uwtable
define internal void @put_bits_no_assert(ptr noundef %0, i32 noundef %1, i32 noundef %2) #2 {
  %4 = alloca ptr, align 8
  %5 = alloca i32, align 4
  %6 = alloca i32, align 4
  %7 = alloca i32, align 4
  %8 = alloca i32, align 4
  store ptr %0, ptr %4, align 8, !tbaa !69
  store i32 %1, ptr %5, align 4, !tbaa !66
  store i32 %2, ptr %6, align 4, !tbaa !66
  call void @llvm.lifetime.start.p0(i64 4, ptr %7) #5
  call void @llvm.lifetime.start.p0(i64 4, ptr %8) #5
  %9 = load ptr, ptr %4, align 8, !tbaa !69
  %10 = getelementptr inbounds nuw %struct.PutBitContext, ptr %9, i32 0, i32 0
  %11 = load i32, ptr %10, align 8, !tbaa !72
  store i32 %11, ptr %7, align 4, !tbaa !66
  %12 = load ptr, ptr %4, align 8, !tbaa !69
  %13 = getelementptr inbounds nuw %struct.PutBitContext, ptr %12, i32 0, i32 1
  %14 = load i32, ptr %13, align 4, !tbaa !71
  store i32 %14, ptr %8, align 4, !tbaa !66
  %15 = load i32, ptr %5, align 4, !tbaa !66
  %16 = load i32, ptr %8, align 4, !tbaa !66
  %17 = icmp slt i32 %15, %16
  br i1 %17, label %18, label %27

18:                                               ; preds = %3
  %19 = load i32, ptr %7, align 4, !tbaa !66
  %20 = load i32, ptr %5, align 4, !tbaa !66
  %21 = shl i32 %19, %20
  %22 = load i32, ptr %6, align 4, !tbaa !66
  %23 = or i32 %21, %22
  store i32 %23, ptr %7, align 4, !tbaa !66
  %24 = load i32, ptr %5, align 4, !tbaa !66
  %25 = load i32, ptr %8, align 4, !tbaa !66
  %26 = sub nsw i32 %25, %24
  store i32 %26, ptr %8, align 4, !tbaa !66
  br label %65

27:                                               ; preds = %3
  %28 = load i32, ptr %8, align 4, !tbaa !66
  %29 = load i32, ptr %7, align 4, !tbaa !66
  %30 = shl i32 %29, %28
  store i32 %30, ptr %7, align 4, !tbaa !66
  %31 = load i32, ptr %6, align 4, !tbaa !66
  %32 = load i32, ptr %5, align 4, !tbaa !66
  %33 = load i32, ptr %8, align 4, !tbaa !66
  %34 = sub nsw i32 %32, %33
  %35 = lshr i32 %31, %34
  %36 = load i32, ptr %7, align 4, !tbaa !66
  %37 = or i32 %36, %35
  store i32 %37, ptr %7, align 4, !tbaa !66
  %38 = load ptr, ptr %4, align 8, !tbaa !69
  %39 = getelementptr inbounds nuw %struct.PutBitContext, ptr %38, i32 0, i32 4
  %40 = load ptr, ptr %39, align 8, !tbaa !73
  %41 = load ptr, ptr %4, align 8, !tbaa !69
  %42 = getelementptr inbounds nuw %struct.PutBitContext, ptr %41, i32 0, i32 3
  %43 = load ptr, ptr %42, align 8, !tbaa !74
  %44 = ptrtoint ptr %40 to i64
  %45 = ptrtoint ptr %43 to i64
  %46 = sub i64 %44, %45
  %47 = icmp uge i64 %46, 4
  br i1 %47, label %48, label %58

48:                                               ; preds = %27
  %49 = load i32, ptr %7, align 4, !tbaa !66
  %50 = call i32 @av_bswap32(i32 noundef %49) #6
  %51 = load ptr, ptr %4, align 8, !tbaa !69
  %52 = getelementptr inbounds nuw %struct.PutBitContext, ptr %51, i32 0, i32 3
  %53 = load ptr, ptr %52, align 8, !tbaa !74
  store i32 %50, ptr %53, align 1, !tbaa !75
  %54 = load ptr, ptr %4, align 8, !tbaa !69
  %55 = getelementptr inbounds nuw %struct.PutBitContext, ptr %54, i32 0, i32 3
  %56 = load ptr, ptr %55, align 8, !tbaa !74
  %57 = getelementptr inbounds nuw i8, ptr %56, i64 4
  store ptr %57, ptr %55, align 8, !tbaa !74
  br label %59

58:                                               ; preds = %27
  call void (ptr, i32, ptr, ...) @av_log(ptr noundef null, i32 noundef 16, ptr noundef @.str.2)
  br label %59

59:                                               ; preds = %58, %48
  %60 = load i32, ptr %5, align 4, !tbaa !66
  %61 = sub nsw i32 32, %60
  %62 = load i32, ptr %8, align 4, !tbaa !66
  %63 = add nsw i32 %62, %61
  store i32 %63, ptr %8, align 4, !tbaa !66
  %64 = load i32, ptr %6, align 4, !tbaa !66
  store i32 %64, ptr %7, align 4, !tbaa !66
  br label %65

65:                                               ; preds = %59, %18
  %66 = load i32, ptr %7, align 4, !tbaa !66
  %67 = load ptr, ptr %4, align 8, !tbaa !69
  %68 = getelementptr inbounds nuw %struct.PutBitContext, ptr %67, i32 0, i32 0
  store i32 %66, ptr %68, align 8, !tbaa !72
  %69 = load i32, ptr %8, align 4, !tbaa !66
  %70 = load ptr, ptr %4, align 8, !tbaa !69
  %71 = getelementptr inbounds nuw %struct.PutBitContext, ptr %70, i32 0, i32 1
  store i32 %69, ptr %71, align 4, !tbaa !71
  call void @llvm.lifetime.end.p0(i64 4, ptr %8) #5
  call void @llvm.lifetime.end.p0(i64 4, ptr %7) #5
  ret void
}

; Function Attrs: inlinehint nounwind uwtable
define internal void @put_sbits(ptr noundef %0, i32 noundef %1, i32 noundef %2) #2 {
  %4 = alloca ptr, align 8
  %5 = alloca i32, align 4
  %6 = alloca i32, align 4
  store ptr %0, ptr %4, align 8, !tbaa !69
  store i32 %1, ptr %5, align 4, !tbaa !66
  store i32 %2, ptr %6, align 4, !tbaa !66
  %7 = load ptr, ptr %4, align 8, !tbaa !69
  %8 = load i32, ptr %5, align 4, !tbaa !66
  %9 = load i32, ptr %6, align 4, !tbaa !66
  %10 = load i32, ptr %5, align 4, !tbaa !66
  %11 = call i32 @av_zero_extend_c(i32 noundef %9, i32 noundef %10) #6
  call void @put_bits(ptr noundef %7, i32 noundef %8, i32 noundef %11)
  ret void
}

; Function Attrs: inlinehint nounwind uwtable
define internal void @put_bits(ptr noundef %0, i32 noundef %1, i32 noundef %2) #2 {
  %4 = alloca ptr, align 8
  %5 = alloca i32, align 4
  %6 = alloca i32, align 4
  store ptr %0, ptr %4, align 8, !tbaa !69
  store i32 %1, ptr %5, align 4, !tbaa !66
  store i32 %2, ptr %6, align 4, !tbaa !66
  %7 = load ptr, ptr %4, align 8, !tbaa !69
  %8 = load i32, ptr %5, align 4, !tbaa !66
  %9 = load i32, ptr %6, align 4, !tbaa !66
  call void @put_bits_no_assert(ptr noundef %7, i32 noundef %8, i32 noundef %9)
  ret void
}

; Function Attrs: nounwind uwtable
define void @ff_flv2_encode_ac_esc(ptr noundef %0, i32 noundef %1, i32 noundef %2, i32 noundef %3, i32 noundef %4) #0 {
  %6 = alloca ptr, align 8
  %7 = alloca i32, align 4
  %8 = alloca i32, align 4
  %9 = alloca i32, align 4
  %10 = alloca i32, align 4
  store ptr %0, ptr %6, align 8, !tbaa !69
  store i32 %1, ptr %7, align 4, !tbaa !66
  store i32 %2, ptr %8, align 4, !tbaa !66
  store i32 %3, ptr %9, align 4, !tbaa !66
  store i32 %4, ptr %10, align 4, !tbaa !66
  %11 = load i32, ptr %8, align 4, !tbaa !66
  %12 = icmp slt i32 %11, 64
  br i1 %12, label %13, label %21

13:                                               ; preds = %5
  %14 = load ptr, ptr %6, align 8, !tbaa !69
  call void @put_bits(ptr noundef %14, i32 noundef 1, i32 noundef 0)
  %15 = load ptr, ptr %6, align 8, !tbaa !69
  %16 = load i32, ptr %10, align 4, !tbaa !66
  call void @put_bits(ptr noundef %15, i32 noundef 1, i32 noundef %16)
  %17 = load ptr, ptr %6, align 8, !tbaa !69
  %18 = load i32, ptr %9, align 4, !tbaa !66
  call void @put_bits(ptr noundef %17, i32 noundef 6, i32 noundef %18)
  %19 = load ptr, ptr %6, align 8, !tbaa !69
  %20 = load i32, ptr %7, align 4, !tbaa !66
  call void @put_sbits(ptr noundef %19, i32 noundef 7, i32 noundef %20)
  br label %29

21:                                               ; preds = %5
  %22 = load ptr, ptr %6, align 8, !tbaa !69
  call void @put_bits(ptr noundef %22, i32 noundef 1, i32 noundef 1)
  %23 = load ptr, ptr %6, align 8, !tbaa !69
  %24 = load i32, ptr %10, align 4, !tbaa !66
  call void @put_bits(ptr noundef %23, i32 noundef 1, i32 noundef %24)
  %25 = load ptr, ptr %6, align 8, !tbaa !69
  %26 = load i32, ptr %9, align 4, !tbaa !66
  call void @put_bits(ptr noundef %25, i32 noundef 6, i32 noundef %26)
  %27 = load ptr, ptr %6, align 8, !tbaa !69
  %28 = load i32, ptr %7, align 4, !tbaa !66
  call void @put_sbits(ptr noundef %27, i32 noundef 11, i32 noundef %28)
  br label %29

29:                                               ; preds = %21, %13
  ret void
}