; Function Attrs: nounwind uwtable
define void @ff_flv2_encode_ac_esc(ptr noundef captures(none) %0, i32 noundef %1, i32 noundef %2, i32 noundef %3, i32 noundef %4) local_unnamed_addr #0 {
  %6 = icmp slt i32 %2, 64
  %7 = load i32, ptr %0, align 8, !tbaa !11
  %8 = getelementptr inbounds nuw i8, ptr %0, i64 4
  %9 = load i32, ptr %8, align 4, !tbaa !4
  %10 = icmp sgt i32 %9, 1
  br i1 %6, label %11, label %100

11:                                               ; preds = %5
  br i1 %10, label %12, label %14

12:                                               ; preds = %11
  %13 = shl i32 %7, 1
  br label %put_bits.exit

14:                                               ; preds = %11
  %15 = getelementptr inbounds nuw i8, ptr %0, i64 24
  %16 = load ptr, ptr %15, align 8, !tbaa !12
  %17 = getelementptr inbounds nuw i8, ptr %0, i64 16
  %18 = load ptr, ptr %17, align 8, !tbaa !13
  %19 = ptrtoint ptr %16 to i64
  %20 = ptrtoint ptr %18 to i64
  %21 = sub i64 %19, %20
  %22 = icmp ugt i64 %21, 3
  br i1 %22, label %23, label %28

23:                                               ; preds = %14
  %24 = shl i32 %7, %9
  %25 = tail call i32 @llvm.bswap.i32(i32 %24)
  store i32 %25, ptr %18, align 1, !tbaa !14
  %26 = load ptr, ptr %17, align 8, !tbaa !13
  %27 = getelementptr inbounds nuw i8, ptr %26, i64 4
  store ptr %27, ptr %17, align 8, !tbaa !13
  br label %put_bits.exit

28:                                               ; preds = %14
  tail call void (ptr, i32, ptr, ...) @av_log(ptr noundef null, i32 noundef 16, ptr noundef nonnull @.str.2) #3
  br label %put_bits.exit

put_bits.exit:                                    ; preds = %23, %28, %12
  %.sink = phi i32 [ -1, %12 ], [ 31, %28 ], [ 31, %23 ]
  %.026.i.i = phi i32 [ %13, %12 ], [ 0, %28 ], [ 0, %23 ]
  %29 = add nsw i32 %9, %.sink
  store i32 %.026.i.i, ptr %0, align 8, !tbaa !11
  store i32 %29, ptr %8, align 4, !tbaa !4
  %30 = icmp sgt i32 %29, 1
  br i1 %30, label %31, label %34

31:                                               ; preds = %put_bits.exit
  %32 = shl i32 %.026.i.i, 1
  %33 = or i32 %32, %4
  br label %put_bits.exit17

34:                                               ; preds = %put_bits.exit
  %35 = getelementptr inbounds nuw i8, ptr %0, i64 24
  %36 = load ptr, ptr %35, align 8, !tbaa !12
  %37 = getelementptr inbounds nuw i8, ptr %0, i64 16
  %38 = load ptr, ptr %37, align 8, !tbaa !13
  %39 = ptrtoint ptr %36 to i64
  %40 = ptrtoint ptr %38 to i64
  %41 = sub i64 %39, %40
  %42 = icmp ugt i64 %41, 3
  br i1 %42, label %43, label %51

43:                                               ; preds = %34
  %44 = shl i32 %.026.i.i, %29
  %45 = sub nsw i32 1, %29
  %46 = lshr i32 %4, %45
  %47 = or i32 %46, %44
  %48 = tail call i32 @llvm.bswap.i32(i32 %47)
  store i32 %48, ptr %38, align 1, !tbaa !14
  %49 = load ptr, ptr %37, align 8, !tbaa !13
  %50 = getelementptr inbounds nuw i8, ptr %49, i64 4
  store ptr %50, ptr %37, align 8, !tbaa !13
  br label %put_bits.exit17

51:                                               ; preds = %34
  tail call void (ptr, i32, ptr, ...) @av_log(ptr noundef null, i32 noundef 16, ptr noundef nonnull @.str.2) #3
  br label %put_bits.exit17

put_bits.exit17:                                  ; preds = %43, %51, %31
  %.sink39 = phi i32 [ -1, %31 ], [ 31, %51 ], [ 31, %43 ]
  %.026.i.i15 = phi i32 [ %33, %31 ], [ %4, %51 ], [ %4, %43 ]
  %52 = add nsw i32 %29, %.sink39
  store i32 %.026.i.i15, ptr %0, align 8, !tbaa !11
  store i32 %52, ptr %8, align 4, !tbaa !4
  %53 = icmp sgt i32 %52, 6
  br i1 %53, label %54, label %57

54:                                               ; preds = %put_bits.exit17
  %55 = shl i32 %.026.i.i15, 6
  %56 = or i32 %55, %3
  br label %put_bits.exit21

57:                                               ; preds = %put_bits.exit17
  %58 = getelementptr inbounds nuw i8, ptr %0, i64 24
  %59 = load ptr, ptr %58, align 8, !tbaa !12
  %60 = getelementptr inbounds nuw i8, ptr %0, i64 16
  %61 = load ptr, ptr %60, align 8, !tbaa !13
  %62 = ptrtoint ptr %59 to i64
  %63 = ptrtoint ptr %61 to i64
  %64 = sub i64 %62, %63
  %65 = icmp ugt i64 %64, 3
  br i1 %65, label %66, label %74

66:                                               ; preds = %57
  %67 = shl i32 %.026.i.i15, %52
  %68 = sub nsw i32 6, %52
  %69 = lshr i32 %3, %68
  %70 = or i32 %69, %67
  %71 = tail call i32 @llvm.bswap.i32(i32 %70)
  store i32 %71, ptr %61, align 1, !tbaa !14
  %72 = load ptr, ptr %60, align 8, !tbaa !13
  %73 = getelementptr inbounds nuw i8, ptr %72, i64 4
  store ptr %73, ptr %60, align 8, !tbaa !13
  br label %put_bits.exit21

74:                                               ; preds = %57
  tail call void (ptr, i32, ptr, ...) @av_log(ptr noundef null, i32 noundef 16, ptr noundef nonnull @.str.2) #3
  br label %put_bits.exit21

put_bits.exit21:                                  ; preds = %66, %74, %54
  %.sink40 = phi i32 [ -6, %54 ], [ 26, %74 ], [ 26, %66 ]
  %.026.i.i19 = phi i32 [ %56, %54 ], [ %3, %74 ], [ %3, %66 ]
  %75 = add nsw i32 %52, %.sink40
  store i32 %.026.i.i19, ptr %0, align 8, !tbaa !11
  store i32 %75, ptr %8, align 4, !tbaa !4
  %76 = and i32 %1, 127
  %77 = icmp sgt i32 %75, 7
  br i1 %77, label %78, label %81

78:                                               ; preds = %put_bits.exit21
  %79 = shl i32 %.026.i.i19, 7
  %80 = or disjoint i32 %79, %76
  br label %put_sbits.exit

81:                                               ; preds = %put_bits.exit21
  %82 = getelementptr inbounds nuw i8, ptr %0, i64 24
  %83 = load ptr, ptr %82, align 8, !tbaa !12
  %84 = getelementptr inbounds nuw i8, ptr %0, i64 16
  %85 = load ptr, ptr %84, align 8, !tbaa !13
  %86 = ptrtoint ptr %83 to i64
  %87 = ptrtoint ptr %85 to i64
  %88 = sub i64 %86, %87
  %89 = icmp ugt i64 %88, 3
  br i1 %89, label %90, label %98

90:                                               ; preds = %81
  %91 = shl i32 %.026.i.i19, %75
  %92 = sub nsw i32 7, %75
  %93 = lshr i32 %76, %92
  %94 = or i32 %93, %91
  %95 = tail call i32 @llvm.bswap.i32(i32 %94)
  store i32 %95, ptr %85, align 1, !tbaa !14
  %96 = load ptr, ptr %84, align 8, !tbaa !13
  %97 = getelementptr inbounds nuw i8, ptr %96, i64 4
  store ptr %97, ptr %84, align 8, !tbaa !13
  br label %put_sbits.exit

98:                                               ; preds = %81
  tail call void (ptr, i32, ptr, ...) @av_log(ptr noundef null, i32 noundef 16, ptr noundef nonnull @.str.2) #3
  br label %put_sbits.exit

put_sbits.exit:                                   ; preds = %90, %98, %78
  %.sink41 = phi i32 [ -7, %78 ], [ 25, %98 ], [ 25, %90 ]
  %.026.i.i.i = phi i32 [ %80, %78 ], [ %76, %98 ], [ %76, %90 ]
  %99 = add nsw i32 %75, %.sink41
  br label %193

100:                                              ; preds = %5
  br i1 %10, label %101, label %104

101:                                              ; preds = %100
  %102 = shl i32 %7, 1
  %103 = or disjoint i32 %102, 1
  br label %put_bits.exit26

104:                                              ; preds = %100
  %105 = getelementptr inbounds nuw i8, ptr %0, i64 24
  %106 = load ptr, ptr %105, align 8, !tbaa !12
  %107 = getelementptr inbounds nuw i8, ptr %0, i64 16
  %108 = load ptr, ptr %107, align 8, !tbaa !13
  %109 = ptrtoint ptr %106 to i64
  %110 = ptrtoint ptr %108 to i64
  %111 = sub i64 %109, %110
  %112 = icmp ugt i64 %111, 3
  br i1 %112, label %113, label %121

113:                                              ; preds = %104
  %114 = shl i32 %7, %9
  %115 = sub nsw i32 1, %9
  %116 = lshr i32 1, %115
  %117 = or i32 %116, %114
  %118 = tail call i32 @llvm.bswap.i32(i32 %117)
  store i32 %118, ptr %108, align 1, !tbaa !14
  %119 = load ptr, ptr %107, align 8, !tbaa !13
  %120 = getelementptr inbounds nuw i8, ptr %119, i64 4
  store ptr %120, ptr %107, align 8, !tbaa !13
  br label %put_bits.exit26

121:                                              ; preds = %104
  tail call void (ptr, i32, ptr, ...) @av_log(ptr noundef null, i32 noundef 16, ptr noundef nonnull @.str.2) #3
  br label %put_bits.exit26

put_bits.exit26:                                  ; preds = %113, %121, %101
  %.sink42 = phi i32 [ -1, %101 ], [ 31, %121 ], [ 31, %113 ]
  %.026.i.i24 = phi i32 [ %103, %101 ], [ 1, %121 ], [ 1, %113 ]
  %122 = add nsw i32 %9, %.sink42
  store i32 %.026.i.i24, ptr %0, align 8, !tbaa !11
  store i32 %122, ptr %8, align 4, !tbaa !4
  %123 = icmp sgt i32 %122, 1
  br i1 %123, label %124, label %127

124:                                              ; preds = %put_bits.exit26
  %125 = shl i32 %.026.i.i24, 1
  %126 = or i32 %125, %4
  br label %put_bits.exit30

127:                                              ; preds = %put_bits.exit26
  %128 = getelementptr inbounds nuw i8, ptr %0, i64 24
  %129 = load ptr, ptr %128, align 8, !tbaa !12
  %130 = getelementptr inbounds nuw i8, ptr %0, i64 16
  %131 = load ptr, ptr %130, align 8, !tbaa !13
  %132 = ptrtoint ptr %129 to i64
  %133 = ptrtoint ptr %131 to i64
  %134 = sub i64 %132, %133
  %135 = icmp ugt i64 %134, 3
  br i1 %135, label %136, label %144

136:                                              ; preds = %127
  %137 = shl i32 %.026.i.i24, %122
  %138 = sub nsw i32 1, %122
  %139 = lshr i32 %4, %138
  %140 = or i32 %139, %137
  %141 = tail call i32 @llvm.bswap.i32(i32 %140)
  store i32 %141, ptr %131, align 1, !tbaa !14
  %142 = load ptr, ptr %130, align 8, !tbaa !13
  %143 = getelementptr inbounds nuw i8, ptr %142, i64 4
  store ptr %143, ptr %130, align 8, !tbaa !13
  br label %put_bits.exit30

144:                                              ; preds = %127
  tail call void (ptr, i32, ptr, ...) @av_log(ptr noundef null, i32 noundef 16, ptr noundef nonnull @.str.2) #3
  br label %put_bits.exit30

put_bits.exit30:                                  ; preds = %136, %144, %124
  %.sink43 = phi i32 [ -1, %124 ], [ 31, %144 ], [ 31, %136 ]
  %.026.i.i28 = phi i32 [ %126, %124 ], [ %4, %144 ], [ %4, %136 ]
  %145 = add nsw i32 %122, %.sink43
  store i32 %.026.i.i28, ptr %0, align 8, !tbaa !11
  store i32 %145, ptr %8, align 4, !tbaa !4
  %146 = icmp sgt i32 %145, 6
  br i1 %146, label %147, label %150

147:                                              ; preds = %put_bits.exit30
  %148 = shl i32 %.026.i.i28, 6
  %149 = or i32 %148, %3
  br label %put_bits.exit34

150:                                              ; preds = %put_bits.exit30
  %151 = getelementptr inbounds nuw i8, ptr %0, i64 24
  %152 = load ptr, ptr %151, align 8, !tbaa !12
  %153 = getelementptr inbounds nuw i8, ptr %0, i64 16
  %154 = load ptr, ptr %153, align 8, !tbaa !13
  %155 = ptrtoint ptr %152 to i64
  %156 = ptrtoint ptr %154 to i64
  %157 = sub i64 %155, %156
  %158 = icmp ugt i64 %157, 3
  br i1 %158, label %159, label %167

159:                                              ; preds = %150
  %160 = shl i32 %.026.i.i28, %145
  %161 = sub nsw i32 6, %145
  %162 = lshr i32 %3, %161
  %163 = or i32 %162, %160
  %164 = tail call i32 @llvm.bswap.i32(i32 %163)
  store i32 %164, ptr %154, align 1, !tbaa !14
  %165 = load ptr, ptr %153, align 8, !tbaa !13
  %166 = getelementptr inbounds nuw i8, ptr %165, i64 4
  store ptr %166, ptr %153, align 8, !tbaa !13
  br label %put_bits.exit34

167:                                              ; preds = %150
  tail call void (ptr, i32, ptr, ...) @av_log(ptr noundef null, i32 noundef 16, ptr noundef nonnull @.str.2) #3
  br label %put_bits.exit34

put_bits.exit34:                                  ; preds = %159, %167, %147
  %.sink44 = phi i32 [ -6, %147 ], [ 26, %167 ], [ 26, %159 ]
  %.026.i.i32 = phi i32 [ %149, %147 ], [ %3, %167 ], [ %3, %159 ]
  %168 = add nsw i32 %145, %.sink44
  store i32 %.026.i.i32, ptr %0, align 8, !tbaa !11
  store i32 %168, ptr %8, align 4, !tbaa !4
  %169 = and i32 %1, 2047
  %170 = icmp sgt i32 %168, 11
  br i1 %170, label %171, label %174

171:                                              ; preds = %put_bits.exit34
  %172 = shl i32 %.026.i.i32, 11
  %173 = or disjoint i32 %172, %169
  br label %put_sbits.exit38

174:                                              ; preds = %put_bits.exit34
  %175 = getelementptr inbounds nuw i8, ptr %0, i64 24
  %176 = load ptr, ptr %175, align 8, !tbaa !12
  %177 = getelementptr inbounds nuw i8, ptr %0, i64 16
  %178 = load ptr, ptr %177, align 8, !tbaa !13
  %179 = ptrtoint ptr %176 to i64
  %180 = ptrtoint ptr %178 to i64
  %181 = sub i64 %179, %180
  %182 = icmp ugt i64 %181, 3
  br i1 %182, label %183, label %191

183:                                              ; preds = %174
  %184 = shl i32 %.026.i.i32, %168
  %185 = sub nsw i32 11, %168
  %186 = lshr i32 %169, %185
  %187 = or i32 %186, %184
  %188 = tail call i32 @llvm.bswap.i32(i32 %187)
  store i32 %188, ptr %178, align 1, !tbaa !14
  %189 = load ptr, ptr %177, align 8, !tbaa !13
  %190 = getelementptr inbounds nuw i8, ptr %189, i64 4
  store ptr %190, ptr %177, align 8, !tbaa !13
  br label %put_sbits.exit38

191:                                              ; preds = %174
  tail call void (ptr, i32, ptr, ...) @av_log(ptr noundef null, i32 noundef 16, ptr noundef nonnull @.str.2) #3
  br label %put_sbits.exit38

put_sbits.exit38:                                 ; preds = %183, %191, %171
  %.sink45 = phi i32 [ -11, %171 ], [ 21, %191 ], [ 21, %183 ]
  %.026.i.i.i36 = phi i32 [ %173, %171 ], [ %169, %191 ], [ %169, %183 ]
  %192 = add nsw i32 %168, %.sink45
  br label %193

193:                                              ; preds = %put_sbits.exit38, %put_sbits.exit
  %.026.i.i.i36.sink = phi i32 [ %.026.i.i.i36, %put_sbits.exit38 ], [ %.026.i.i.i, %put_sbits.exit ]
  %.sink46 = phi i32 [ %192, %put_sbits.exit38 ], [ %99, %put_sbits.exit ]
  store i32 %.026.i.i.i36.sink, ptr %0, align 8, !tbaa !11
  store i32 %.sink46, ptr %8, align 4, !tbaa !4
  ret void
}